; Function Attrs: mustprogress nounwind uwtable
define hidden void @_ZN14CompilationLog11log_nmethodEP10JavaThreadP7nmethod(ptr noundef nonnull align 8 dereferenceable(160) %0, ptr noundef %1, ptr noundef %2) local_unnamed_addr #0 align 2 {
  %4 = getelementptr inbounds i8, ptr %2, i64 204
  %5 = load i32, ptr %4, align 4
  %6 = getelementptr inbounds i8, ptr %2, i64 148
  %7 = load i32, ptr %6, align 4
  %.not = icmp eq i32 %7, -1
  %8 = select i1 %.not, ptr @.str.8, ptr @.str.7
  %9 = ptrtoint ptr %2 to i64
  %10 = getelementptr inbounds i8, ptr %2, i64 36
  %11 = load i32, ptr %10, align 4
  %12 = sext i32 %11 to i64
  %13 = getelementptr inbounds i8, ptr %2, i64 %12
  %14 = ptrtoint ptr %13 to i64
  %15 = getelementptr inbounds i8, ptr %2, i64 40
  %16 = load i32, ptr %15, align 8
  %17 = sext i32 %16 to i64
  %18 = getelementptr inbounds i8, ptr %2, i64 %17
  %19 = ptrtoint ptr %18 to i64
  tail call void (ptr, ptr, ptr, ...) @_ZN20FormatStringEventLogILm256EE3logEP6ThreadPKcz(ptr noundef nonnull align 8 dereferenceable(160) %0, ptr noundef %1, ptr noundef nonnull @.str.6, i32 noundef %5, ptr noundef nonnull %8, i64 noundef %9, i64 noundef %14, i64 noundef %19)
  ret void
}